target datalayout = "e-m:e-p270:32:32-p271:32:32-p272:64:64-i64:64-i128:128-f80:128-n8:16:32:64-S128"
target triple = "x86_64-pc-linux-gnu"

%struct.FunctionCallInfoBaseData = type { ptr, ptr, ptr, i32, i8, i16, [0 x %struct.NullableDatum] }
%struct.NullableDatum = type { i64, i8 }
%struct.PgStat_StatTabEntry = type { i64, i64, i64, i64, i64, i64, i64, i64, i64, i64, i64, i64, i64, i64, i64, i64, i64, i64, i64, i64, i64, i64, i64, i64, i64, i64, i64 }

; Function Attrs: inlinehint nounwind uwtable
define internal i64 @Int64GetDatum(i64 noundef %0) #2 {
  %2 = alloca i64, align 8
  store i64 %0, ptr %2, align 8
  %3 = load i64, ptr %2, align 8
  ret i64 %3
}

; Function Attrs: inlinehint nounwind uwtable
define internal i64 @TimestampTzGetDatum(i64 noundef %0) #2 {
  %2 = alloca i64, align 8
  store i64 %0, ptr %2, align 8
  %3 = load i64, ptr %2, align 8
  %4 = call i64 @Int64GetDatum(i64 noundef %3)
  ret i64 %4
}

; Function Attrs: inlinehint nounwind uwtable
define internal i32 @DatumGetObjectId(i64 noundef %0) #2 {
  %2 = alloca i64, align 8
  store i64 %0, ptr %2, align 8
  %3 = load i64, ptr %2, align 8
  %4 = trunc i64 %3 to i32
  ret i32 %4
}

; Function Attrs: nounwind uwtable
define dso_local i64 @pg_stat_get_last_analyze_time(ptr noundef %0) #0 {
  %2 = alloca i64, align 8
  %3 = alloca ptr, align 8
  %4 = alloca i32, align 4
  %5 = alloca i64, align 8
  %6 = alloca ptr, align 8
  %7 = alloca i32, align 4
  store ptr %0, ptr %3, align 8
  call void @llvm.lifetime.start.p0(i64 4, ptr %4) #10
  %8 = load ptr, ptr %3, align 8
  %9 = getelementptr inbounds nuw %struct.FunctionCallInfoBaseData, ptr %8, i32 0, i32 6
  %10 = getelementptr inbounds [0 x %struct.NullableDatum], ptr %9, i64 0, i64 0
  %11 = getelementptr inbounds nuw %struct.NullableDatum, ptr %10, i32 0, i32 0
  %12 = load i64, ptr %11, align 8
  %13 = call i32 @DatumGetObjectId(i64 noundef %12)
  store i32 %13, ptr %4, align 4
  call void @llvm.lifetime.start.p0(i64 8, ptr %5) #10
  call void @llvm.lifetime.start.p0(i64 8, ptr %6) #10
  %14 = load i32, ptr %4, align 4
  %15 = call ptr @pgstat_fetch_stat_tabentry(i32 noundef %14)
  store ptr %15, ptr %6, align 8
  %16 = icmp eq ptr %15, null
  br i1 %16, label %17, label %18

17:                                               ; preds = %1
  store i64 0, ptr %5, align 8
  br label %22

18:                                               ; preds = %1
  %19 = load ptr, ptr %6, align 8
  %20 = getelementptr inbounds nuw %struct.PgStat_StatTabEntry, ptr %19, i32 0, i32 19
  %21 = load i64, ptr %20, align 8
  store i64 %21, ptr %5, align 8
  br label %22

22:                                               ; preds = %18, %17
  %23 = load i64, ptr %5, align 8
  %24 = icmp eq i64 %23, 0
  br i1 %24, label %25, label %31

25:                                               ; preds = %22
  br label %26

26:                                               ; preds = %25
  %27 = load ptr, ptr %3, align 8
  %28 = getelementptr inbounds nuw %struct.FunctionCallInfoBaseData, ptr %27, i32 0, i32 4
  store i8 1, ptr %28, align 4
  store i64 0, ptr %2, align 8
  store i32 1, ptr %7, align 4
  br label %35

29:                                               ; No predecessors!
  br label %30

30:                                               ; preds = %29
  br label %34

31:                                               ; preds = %22
  %32 = load i64, ptr %5, align 8
  %33 = call i64 @TimestampTzGetDatum(i64 noundef %32)
  store i64 %33, ptr %2, align 8
  store i32 1, ptr %7, align 4
  br label %35

34:                                               ; preds = %30
  store i32 0, ptr %7, align 4
  br label %35

35:                                               ; preds = %34, %31, %26
  call void @llvm.lifetime.end.p0(i64 8, ptr %6) #10
  call void @llvm.lifetime.end.p0(i64 8, ptr %5) #10
  call void @llvm.lifetime.end.p0(i64 4, ptr %4) #10
  %36 = load i32, ptr %7, align 4
  switch i32 %36, label %39 [
    i32 0, label %37
    i32 1, label %37
  ]

37:                                               ; preds = %35, %35
  %38 = load i64, ptr %2, align 8
  ret i64 %38

39:                                               ; preds = %35
  unreachable
}